; Function Attrs: inlinehint nounwind uwtable
define internal void @Vec_StrPrintF(ptr noundef nonnull captures(none) %0, ptr readnone captures(none) %1, ...) unnamed_addr #11 {
  %3 = alloca [1 x %struct.__va_list_tag], align 16
  call void @llvm.lifetime.start.p0(i64 24, ptr nonnull %3) #27
  call void @llvm.va_start.p0(ptr nonnull %3)
  %4 = getelementptr i8, ptr %0, i64 4
  %.val = load i32, ptr %4, align 4, !tbaa !82
  %5 = add nsw i32 %.val, 1000
  %6 = load i32, ptr %0, align 8, !tbaa !81
  %.not.i = icmp slt i32 %6, %5
  %7 = getelementptr i8, ptr %0, i64 8
  %8 = load ptr, ptr %7, align 8, !tbaa !73
  br i1 %.not.i, label %9, label %Vec_StrGrow.exit

9:                                                ; preds = %2
  %.not9.i = icmp eq ptr %8, null
  %10 = sext i32 %5 to i64
  br i1 %.not9.i, label %13, label %11

11:                                               ; preds = %9
  %12 = call ptr @realloc(ptr noundef nonnull %8, i64 noundef %10) #28
  %.val19.pre.pre = load i32, ptr %4, align 4, !tbaa !82
  br label %15

13:                                               ; preds = %9
  %14 = call noalias ptr @malloc(i64 noundef %10) #29
  br label %15

15:                                               ; preds = %13, %11
  %.val19.pre = phi i32 [ %.val19.pre.pre, %11 ], [ %.val, %13 ]
  %16 = phi ptr [ %12, %11 ], [ %14, %13 ]
  store ptr %16, ptr %7, align 8, !tbaa !73
  store i32 %5, ptr %0, align 8, !tbaa !81
  br label %Vec_StrGrow.exit

Vec_StrGrow.exit:                                 ; preds = %2, %15
  %.val20 = phi ptr [ %16, %15 ], [ %8, %2 ]
  %.val19 = phi i32 [ %.val19.pre, %15 ], [ %.val, %2 ]
  %17 = getelementptr i8, ptr %0, i64 8
  %18 = sext i32 %.val19 to i64
  %19 = getelementptr inbounds i8, ptr %.val20, i64 %18
  %20 = call i32 @vsnprintf(ptr noundef %19, i64 noundef 1000, ptr noundef nonnull @.str.38, ptr noundef nonnull %3) #27
  %21 = icmp sgt i32 %20, 1000
  br i1 %21, label %22, label %38

22:                                               ; preds = %Vec_StrGrow.exit
  %.val18 = load i32, ptr %4, align 4, !tbaa !82
  %23 = add nuw i32 %20, 1000
  %24 = add i32 %23, %.val18
  %25 = load i32, ptr %0, align 8, !tbaa !81
  %.not.i25 = icmp slt i32 %25, %24
  %.val22.pre = load ptr, ptr %17, align 8, !tbaa !73
  br i1 %.not.i25, label %26, label %Vec_StrGrow.exit27

26:                                               ; preds = %22
  %.not9.i26 = icmp eq ptr %.val22.pre, null
  %27 = sext i32 %24 to i64
  br i1 %.not9.i26, label %30, label %28

28:                                               ; preds = %26
  %29 = call ptr @realloc(ptr noundef nonnull %.val22.pre, i64 noundef %27) #28
  %.val21.pre.pre = load i32, ptr %4, align 4, !tbaa !82
  br label %32

30:                                               ; preds = %26
  %31 = call noalias ptr @malloc(i64 noundef %27) #29
  br label %32

32:                                               ; preds = %30, %28
  %.val21.pre = phi i32 [ %.val21.pre.pre, %28 ], [ %.val18, %30 ]
  %33 = phi ptr [ %29, %28 ], [ %31, %30 ]
  store ptr %33, ptr %17, align 8, !tbaa !73
  store i32 %24, ptr %0, align 8, !tbaa !81
  br label %Vec_StrGrow.exit27

Vec_StrGrow.exit27:                               ; preds = %22, %32
  %.val22 = phi ptr [ %.val22.pre, %22 ], [ %33, %32 ]
  %.val21 = phi i32 [ %.val18, %22 ], [ %.val21.pre, %32 ]
  %34 = sext i32 %.val21 to i64
  %35 = getelementptr inbounds i8, ptr %.val22, i64 %34
  %36 = zext nneg i32 %20 to i64
  %37 = call i32 @vsnprintf(ptr noundef %35, i64 noundef %36, ptr noundef nonnull @.str.38, ptr noundef nonnull %3) #27
  br label %38

38:                                               ; preds = %Vec_StrGrow.exit27, %Vec_StrGrow.exit
  %39 = load i32, ptr %4, align 4, !tbaa !82
  %40 = add nsw i32 %39, %20
  store i32 %40, ptr %4, align 4, !tbaa !82
  call void @llvm.va_end.p0(ptr nonnull %3)
  call void @llvm.lifetime.end.p0(i64 24, ptr nonnull %3) #27
  ret void
}